; ModuleID = '37/453.c'
source_filename = "37/453.c"
target datalayout = "e-m:e-p270:32:32-p271:32:32-p272:64:64-i64:64-f80:128-n8:16:32:64-S128"
target triple = "x86_64-pc-linux-gnu"

@.str = private unnamed_addr constant [3 x i8] c"%d\00", align 1
@.str.1 = private unnamed_addr constant [3 x i8] c"%s\00", align 1
@.str.2 = private unnamed_addr constant [3 x i8] c"%c\00", align 1
@.str.3 = private unnamed_addr constant [3 x i8] c"no\00", align 1
@.str.4 = private unnamed_addr constant [2 x i8] c"\0A\00", align 1

; Function Attrs: noinline nounwind uwtable
define dso_local i32 @main() #0 {
  %1 = alloca i32, align 4
  %2 = alloca i32, align 4
  %3 = alloca i32, align 4
  %4 = alloca i32, align 4
  %5 = alloca i32, align 4
  %6 = alloca i32, align 4
  %7 = alloca i32, align 4
  %8 = alloca i32, align 4
  %9 = alloca i32, align 4
  %10 = alloca i8*, align 8
  %11 = alloca i8*, align 8
  %12 = alloca i64, align 8
  %13 = alloca i32, align 4
  store i32 0, i32* %1, align 4
  %14 = call i32 (i8*, ...) @__isoc99_scanf(i8* getelementptr inbounds ([3 x i8], [3 x i8]* @.str, i64 0, i64 0), i32* %2)
  %15 = load i32, i32* %2, align 4
  %16 = zext i32 %15 to i64
  %17 = call i8* @llvm.stacksave()
  store i8* %17, i8** %11, align 8
  %18 = alloca i8*, i64 %16, align 16
  store i64 %16, i64* %12, align 8
  store i32 0, i32* %9, align 4
  br label %19

19:                                               ; preds = %33, %0
  %20 = load i32, i32* %9, align 4
  %21 = load i32, i32* %2, align 4
  %22 = icmp slt i32 %20, %21
  br i1 %22, label %23, label %36

23:                                               ; preds = %19
  %24 = call noalias i8* @malloc(i64 100) #2
  %25 = load i32, i32* %9, align 4
  %26 = sext i32 %25 to i64
  %27 = getelementptr inbounds i8*, i8** %18, i64 %26
  store i8* %24, i8** %27, align 8
  %28 = load i32, i32* %9, align 4
  %29 = sext i32 %28 to i64
  %30 = getelementptr inbounds i8*, i8** %18, i64 %29
  %31 = load i8*, i8** %30, align 8
  %32 = call i32 (i8*, ...) @__isoc99_scanf(i8* getelementptr inbounds ([3 x i8], [3 x i8]* @.str.1, i64 0, i64 0), i8* %31)
  br label %33

33:                                               ; preds = %23
  %34 = load i32, i32* %9, align 4
  %35 = add nsw i32 %34, 1
  store i32 %35, i32* %9, align 4
  br label %19

36:                                               ; preds = %19
  store i32 0, i32* %9, align 4
  br label %37

37:                                               ; preds = %119, %36
  %38 = load i32, i32* %9, align 4
  %39 = load i32, i32* %2, align 4
  %40 = icmp slt i32 %38, %39
  br i1 %40, label %41, label %122

41:                                               ; preds = %37
  %42 = load i32, i32* %9, align 4
  %43 = sext i32 %42 to i64
  %44 = getelementptr inbounds i8*, i8** %18, i64 %43
  %45 = load i8*, i8** %44, align 8
  %46 = call i64 @strlen(i8* %45) #5
  %47 = trunc i64 %46 to i32
  store i32 %47, i32* %6, align 4
  store i32 0, i32* %8, align 4
  store i32 0, i32* %3, align 4
  br label %48

48:                                               ; preds = %109, %41
  %49 = load i32, i32* %3, align 4
  %50 = load i32, i32* %6, align 4
  %51 = icmp slt i32 %49, %50
  br i1 %51, label %52, label %112

52:                                               ; preds = %48
  store i32 0, i32* %7, align 4
  store i32 0, i32* %4, align 4
  br label %53

53:                                               ; preds = %87, %52
  %54 = load i32, i32* %4, align 4
  %55 = load i32, i32* %6, align 4
  %56 = icmp slt i32 %54, %55
  br i1 %56, label %57, label %90

57:                                               ; preds = %53
  %58 = load i32, i32* %9, align 4
  %59 = sext i32 %58 to i64
  %60 = getelementptr inbounds i8*, i8** %18, i64 %59
  %61 = load i8*, i8** %60, align 8
  %62 = load i8, i8* %61, align 1
  %63 = sext i8 %62 to i32
  store i32 %63, i32* %13, align 4
  %64 = load i32, i32* %9, align 4
  %65 = sext i32 %64 to i64
  %66 = getelementptr inbounds i8*, i8** %18, i64 %65
  %67 = load i8*, i8** %66, align 8
  %68 = load i32, i32* %4, align 4
  %69 = sext i32 %68 to i64
  %70 = getelementptr inbounds i8, i8* %67, i64 %69
  %71 = load i8, i8* %70, align 1
  %72 = sext i8 %71 to i32
  %73 = load i32, i32* %9, align 4
  %74 = sext i32 %73 to i64
  %75 = getelementptr inbounds i8*, i8** %18, i64 %74
  %76 = load i8*, i8** %75, align 8
  %77 = load i32, i32* %3, align 4
  %78 = sext i32 %77 to i64
  %79 = getelementptr inbounds i8, i8* %76, i64 %78
  %80 = load i8, i8* %79, align 1
  %81 = sext i8 %80 to i32
  %82 = icmp eq i32 %72, %81
  br i1 %82, label %83, label %86

83:                                               ; preds = %57
  %84 = load i32, i32* %7, align 4
  %85 = add nsw i32 %84, 1
  store i32 %85, i32* %7, align 4
  br label %86

86:                                               ; preds = %83, %57
  br label %87

87:                                               ; preds = %86
  %88 = load i32, i32* %4, align 4
  %89 = add nsw i32 %88, 1
  store i32 %89, i32* %4, align 4
  br label %53

90:                                               ; preds = %53
  %91 = load i32, i32* %7, align 4
  %92 = icmp eq i32 %91, 1
  br i1 %92, label %93, label %104

93:                                               ; preds = %90
  %94 = load i32, i32* %9, align 4
  %95 = sext i32 %94 to i64
  %96 = getelementptr inbounds i8*, i8** %18, i64 %95
  %97 = load i8*, i8** %96, align 8
  %98 = load i32, i32* %3, align 4
  %99 = sext i32 %98 to i64
  %100 = getelementptr inbounds i8, i8* %97, i64 %99
  %101 = load i8, i8* %100, align 1
  %102 = sext i8 %101 to i32
  %103 = call i32 (i8*, ...) @printf(i8* getelementptr inbounds ([3 x i8], [3 x i8]* @.str.2, i64 0, i64 0), i32 %102)
  store i32 1, i32* %8, align 4
  br label %104

104:                                              ; preds = %93, %90
  %105 = load i32, i32* %7, align 4
  %106 = icmp eq i32 %105, 1
  br i1 %106, label %107, label %108

107:                                              ; preds = %104
  br label %112

108:                                              ; preds = %104
  br label %109

109:                                              ; preds = %108
  %110 = load i32, i32* %3, align 4
  %111 = add nsw i32 %110, 1
  store i32 %111, i32* %3, align 4
  br label %48

112:                                              ; preds = %107, %48
  %113 = load i32, i32* %8, align 4
  %114 = icmp eq i32 %113, 0
  br i1 %114, label %115, label %117

115:                                              ; preds = %112
  %116 = call i32 (i8*, ...) @printf(i8* getelementptr inbounds ([3 x i8], [3 x i8]* @.str.3, i64 0, i64 0))
  br label %117

117:                                              ; preds = %115, %112
  %118 = call i32 (i8*, ...) @printf(i8* getelementptr inbounds ([2 x i8], [2 x i8]* @.str.4, i64 0, i64 0))
  br label %119

119:                                              ; preds = %117
  %120 = load i32, i32* %9, align 4
  %121 = add nsw i32 %120, 1
  store i32 %121, i32* %9, align 4
  br label %37

122:                                              ; preds = %37
  %123 = load i8*, i8** %11, align 8
  call void @llvm.stackrestore(i8* %123)
  %124 = load i32, i32* %1, align 4
  ret i32 %124
}

declare dso_local i32 @__isoc99_scanf(i8*, ...) #1

; Function Attrs: nounwind
declare i8* @llvm.stacksave() #2

; Function Attrs: nounwind
declare dso_local noalias i8* @malloc(i64) #3

; Function Attrs: nounwind readonly
declare dso_local i64 @strlen(i8*) #4

declare dso_local i32 @printf(i8*, ...) #1

; Function Attrs: nounwind
declare void @llvm.stackrestore(i8*) #2


!llvm.module.flags = !{!0}
!llvm.ident = !{!1}

!0 = !{i32 1, !"wchar_size", i32 4}
!1 = !{!"clang version 10.0.0-4ubuntu1 "}
